target datalayout = "e-m:e-p270:32:32-p271:32:32-p272:64:64-i64:64-i128:128-f80:128-n8:16:32:64-S128"
target triple = "x86_64-pc-linux-gnu"

%struct.slurm_conf_t = type { i64, ptr, i16, ptr, ptr, ptr, ptr, ptr, i16, ptr, ptr, ptr, ptr, ptr, ptr, ptr, i16, ptr, ptr, ptr, ptr, i16, ptr, ptr, ptr, i64, ptr, ptr, ptr, ptr, i16, ptr, ptr, i16, i32, ptr, i32, ptr, i32, i32, ptr, ptr, i64, i64, ptr, i16, i16, ptr, i32, i32, ptr, i32, ptr, i32, i16, i16, i16, ptr, i16, i16, ptr, ptr, i32, i16, i16, ptr, i32, i16, ptr, ptr, ptr, ptr, i16, ptr, ptr, ptr, ptr, i32, ptr, ptr, ptr, ptr, i16, i16, ptr, i32, i32, i32, i16, i16, ptr, ptr, i16, ptr, ptr, i32, i32, i32, i32, i32, i64, i32, i32, i16, ptr, ptr, i32, ptr, ptr, ptr, i16, i32, ptr, ptr, i16, ptr, ptr, i32, i16, ptr, ptr, ptr, ptr, i32, i32, i16, i16, i32, ptr, i16, ptr, i32, i32, i32, i32, i32, i32, ptr, i16, ptr, ptr, i32, i16, ptr, i32, i16, i16, ptr, ptr, ptr, i16, ptr, ptr, ptr, ptr, i16, i16, ptr, i16, ptr, i16, ptr, i16, ptr, i16, ptr, ptr, ptr, ptr, i16, ptr, ptr, ptr, i32, ptr, i32, ptr, ptr, i16, ptr, ptr, i32, i16, ptr, ptr, i16, i16, ptr, i16, ptr, ptr, ptr, i32, ptr, i16, i16, ptr, ptr, ptr, ptr, ptr, ptr, ptr, ptr, i16, i32, i16, ptr, ptr, ptr, ptr, i32, ptr, ptr, ptr, i16, ptr, ptr, ptr, i16, ptr, i16, ptr, i16, i16, ptr }
%struct.sockaddr_storage = type { i16, [118 x i8], i64 }
%struct.slurm_protocol_header = type { i16, i16, i16, i32, i16, %struct.forward, %struct.sockaddr_storage, ptr }
%struct.forward = type { %struct.slurm_node_alias_addrs_t, i16, i16, ptr, i32, i16, i16 }
%struct.slurm_node_alias_addrs_t = type { i64, ptr, ptr, i32, ptr }
%struct.slurm_msg = type { %struct.sockaddr_storage, ptr, i32, i32, i32, i8, i32, i8, i32, ptr, ptr, i32, ptr, ptr, i16, i8, i16, i16, %struct.forward, ptr, %struct.sockaddr_storage, ptr }
%struct.buf_t = type { i32, ptr, i32, i32, i8, i8 }
%struct.slurm_hash_t = type { i8, [32 x i8] }

@slurm_conf = external global %struct.slurm_conf_t, align 8
@.str.40 = private unnamed_addr constant [19 x i8] c"NET_RAW: %s: hash:\00", align 1
@_check_hash.config_update = internal global i64 -1, align 8
@_check_hash.block_null_hash = internal global i8 1, align 1
@_check_hash.block_zero_hash = internal global i8 1, align 1
@.str.94 = private unnamed_addr constant [16 x i8] c"block_null_hash\00", align 1
@.str.95 = private unnamed_addr constant [16 x i8] c"block_zero_hash\00", align 1
@.str.96 = private unnamed_addr constant [24 x i8] c"NET_RAW: %s: cred_hash:\00", align 1
@__func__._check_hash = private unnamed_addr constant [12 x i8] c"_check_hash\00", align 1

; Function Attrs: inlinehint nounwind uwtable
define internal zeroext i16 @__bswap_16(i16 noundef zeroext %0) #11 {
  %2 = alloca i16, align 2
  store i16 %0, ptr %2, align 2
  %3 = load i16, ptr %2, align 2
  %4 = zext i16 %3 to i32
  %5 = ashr i32 %4, 8
  %6 = and i32 %5, 255
  %7 = load i16, ptr %2, align 2
  %8 = zext i16 %7 to i32
  %9 = and i32 %8, 255
  %10 = shl i32 %9, 8
  %11 = or i32 %6, %10
  %12 = trunc i32 %11 to i16
  ret i16 %12
}

; Function Attrs: nounwind uwtable
define internal i32 @_check_hash(ptr noundef %0, ptr noundef %1, ptr noundef %2, ptr noundef %3) #0 {
  %5 = alloca i32, align 4
  %6 = alloca ptr, align 8
  %7 = alloca ptr, align 8
  %8 = alloca ptr, align 8
  %9 = alloca ptr, align 8
  %10 = alloca ptr, align 8
  %11 = alloca i32, align 4
  %12 = alloca i32, align 4
  %13 = alloca i32, align 4
  %14 = alloca i16, align 2
  %15 = alloca ptr, align 8
  %16 = alloca ptr, align 8
  %17 = alloca i32, align 4
  %18 = alloca %struct.slurm_hash_t, align 1
  %19 = alloca i32, align 4
  %20 = alloca i16, align 2
  store ptr %0, ptr %6, align 8
  store ptr %1, ptr %7, align 8
  store ptr %2, ptr %8, align 8
  store ptr %3, ptr %9, align 8
  call void @llvm.lifetime.start.p0(i64 8, ptr %10) #12
  store ptr null, ptr %10, align 8
  call void @llvm.lifetime.start.p0(i64 4, ptr %11) #12
  store i32 0, ptr %11, align 4
  call void @llvm.lifetime.start.p0(i64 4, ptr %12) #12
  %21 = load ptr, ptr %7, align 8
  %22 = getelementptr inbounds nuw %struct.slurm_protocol_header, ptr %21, i32 0, i32 1
  %23 = load i16, ptr %22, align 2
  %24 = zext i16 %23 to i64
  %25 = and i64 %24, 64
  %26 = icmp ne i64 %25, 0
  br i1 %26, label %27, label %28

27:                                               ; preds = %4
  store i32 0, ptr %5, align 4
  store i32 1, ptr %13, align 4
  br label %166

28:                                               ; preds = %4
  %29 = load i64, ptr @_check_hash.config_update, align 8
  %30 = load i64, ptr @slurm_conf, align 8
  %31 = icmp ne i64 %29, %30
  br i1 %31, label %32, label %42

32:                                               ; preds = %28
  %33 = load ptr, ptr getelementptr inbounds nuw (%struct.slurm_conf_t, ptr @slurm_conf, i32 0, i32 32), align 8
  %34 = call ptr @xstrcasestr(ptr noundef %33, ptr noundef @.str.94)
  %35 = icmp ne ptr %34, null
  %36 = zext i1 %35 to i8
  store i8 %36, ptr @_check_hash.block_null_hash, align 1
  %37 = load ptr, ptr getelementptr inbounds nuw (%struct.slurm_conf_t, ptr @slurm_conf, i32 0, i32 32), align 8
  %38 = call ptr @xstrcasestr(ptr noundef %37, ptr noundef @.str.95)
  %39 = icmp ne ptr %38, null
  %40 = zext i1 %39 to i8
  store i8 %40, ptr @_check_hash.block_zero_hash, align 1
  %41 = load i64, ptr @slurm_conf, align 8
  store i64 %41, ptr @_check_hash.config_update, align 8
  br label %42

42:                                               ; preds = %32, %28
  %43 = load ptr, ptr %8, align 8
  %44 = getelementptr inbounds nuw %struct.slurm_msg, ptr %43, i32 0, i32 2
  %45 = load i32, ptr %44, align 8
  %46 = call zeroext i1 @slurm_get_plugin_hash_enable(i32 noundef %45)
  br i1 %46, label %48, label %47

47:                                               ; preds = %42
  store i32 0, ptr %5, align 4
  store i32 1, ptr %13, align 4
  br label %166

48:                                               ; preds = %42
  %49 = load ptr, ptr %9, align 8
  %50 = call i32 @auth_g_get_data(ptr noundef %49, ptr noundef %10, ptr noundef %11)
  store i32 %50, ptr %12, align 4
  %51 = load i32, ptr %11, align 4
  %52 = icmp ne i32 %51, 0
  br i1 %52, label %53, label %159

53:                                               ; preds = %48
  br label %54

54:                                               ; preds = %53
  %55 = load i64, ptr getelementptr inbounds nuw (%struct.slurm_conf_t, ptr @slurm_conf, i32 0, i32 42), align 8
  %56 = and i64 %55, 16
  %57 = icmp ne i64 %56, 0
  br i1 %57, label %58, label %62

58:                                               ; preds = %54
  %59 = load ptr, ptr %10, align 8
  %60 = load i32, ptr %11, align 4
  %61 = zext i32 %60 to i64
  call void (ptr, i64, i64, i64, ptr, ...) @_log_flag_hex(ptr noundef %59, i64 noundef %61, i64 noundef -1, i64 noundef -1, ptr noundef @.str.96, ptr noundef @__func__._check_hash)
  br label %62

62:                                               ; preds = %58, %54
  br label %63

63:                                               ; preds = %62
  br label %64

64:                                               ; preds = %63
  %65 = load ptr, ptr %10, align 8
  %66 = getelementptr inbounds i8, ptr %65, i64 0
  %67 = load i8, ptr %66, align 1
  %68 = sext i8 %67 to i32
  %69 = icmp eq i32 %68, 1
  br i1 %69, label %70, label %107

70:                                               ; preds = %64
  call void @llvm.lifetime.start.p0(i64 2, ptr %14) #12
  %71 = load ptr, ptr %8, align 8
  %72 = getelementptr inbounds nuw %struct.slurm_msg, ptr %71, i32 0, i32 16
  %73 = load i16, ptr %72, align 4
  %74 = call zeroext i16 @__bswap_16(i16 noundef zeroext %73)
  store i16 %74, ptr %14, align 2
  call void @llvm.lifetime.start.p0(i64 8, ptr %15) #12
  store ptr %14, ptr %15, align 8
  %75 = load i8, ptr @_check_hash.block_zero_hash, align 1, !range !16, !noundef !17
  %76 = trunc i8 %75 to i1
  br i1 %76, label %80, label %77

77:                                               ; preds = %70
  %78 = load i32, ptr %11, align 4
  %79 = icmp ne i32 %78, 3
  br i1 %79, label %80, label %81

80:                                               ; preds = %77, %70
  store i32 -1, ptr %12, align 4
  br label %106

81:                                               ; preds = %77
  %82 = load ptr, ptr %10, align 8
  %83 = getelementptr inbounds i8, ptr %82, i64 1
  %84 = load i8, ptr %83, align 1
  %85 = sext i8 %84 to i32
  %86 = load ptr, ptr %15, align 8
  %87 = getelementptr inbounds i8, ptr %86, i64 0
  %88 = load i8, ptr %87, align 1
  %89 = sext i8 %88 to i32
  %90 = icmp eq i32 %85, %89
  br i1 %90, label %91, label %104

91:                                               ; preds = %81
  %92 = load ptr, ptr %10, align 8
  %93 = getelementptr inbounds i8, ptr %92, i64 2
  %94 = load i8, ptr %93, align 1
  %95 = sext i8 %94 to i32
  %96 = load ptr, ptr %15, align 8
  %97 = getelementptr inbounds i8, ptr %96, i64 1
  %98 = load i8, ptr %97, align 1
  %99 = sext i8 %98 to i32
  %100 = icmp eq i32 %95, %99
  br i1 %100, label %101, label %104

101:                                              ; preds = %91
  %102 = load ptr, ptr %8, align 8
  %103 = getelementptr inbounds nuw %struct.slurm_msg, ptr %102, i32 0, i32 15
  store i8 1, ptr %103, align 2
  br label %105

104:                                              ; preds = %91, %81
  store i32 -1, ptr %12, align 4
  br label %105

105:                                              ; preds = %104, %101
  br label %106

106:                                              ; preds = %105, %80
  call void @llvm.lifetime.end.p0(i64 8, ptr %15) #12
  call void @llvm.lifetime.end.p0(i64 2, ptr %14) #12
  br label %158

107:                                              ; preds = %64
  call void @llvm.lifetime.start.p0(i64 8, ptr %16) #12
  call void @llvm.lifetime.start.p0(i64 4, ptr %17) #12
  %108 = load ptr, ptr %7, align 8
  %109 = getelementptr inbounds nuw %struct.slurm_protocol_header, ptr %108, i32 0, i32 3
  %110 = load i32, ptr %109, align 8
  store i32 %110, ptr %17, align 4
  call void @llvm.lifetime.start.p0(i64 33, ptr %18) #12
  call void @llvm.memset.p0.i64(ptr align 1 %18, i8 0, i64 33, i1 false)
  call void @llvm.lifetime.start.p0(i64 4, ptr %19) #12
  call void @llvm.lifetime.start.p0(i64 2, ptr %20) #12
  %111 = load ptr, ptr %8, align 8
  %112 = getelementptr inbounds nuw %struct.slurm_msg, ptr %111, i32 0, i32 16
  %113 = load i16, ptr %112, align 4
  %114 = call zeroext i16 @__bswap_16(i16 noundef zeroext %113)
  store i16 %114, ptr %20, align 2
  %115 = load ptr, ptr %6, align 8
  %116 = getelementptr inbounds nuw %struct.buf_t, ptr %115, i32 0, i32 1
  %117 = load ptr, ptr %116, align 8
  %118 = load ptr, ptr %6, align 8
  %119 = getelementptr inbounds nuw %struct.buf_t, ptr %118, i32 0, i32 3
  %120 = load i32, ptr %119, align 4
  %121 = zext i32 %120 to i64
  %122 = getelementptr inbounds nuw i8, ptr %117, i64 %121
  store ptr %122, ptr %16, align 8
  %123 = load ptr, ptr %10, align 8
  %124 = getelementptr inbounds i8, ptr %123, i64 0
  %125 = load i8, ptr %124, align 1
  %126 = getelementptr inbounds nuw %struct.slurm_hash_t, ptr %18, i32 0, i32 0
  store i8 %125, ptr %126, align 1
  %127 = load ptr, ptr %16, align 8
  %128 = load i32, ptr %17, align 4
  %129 = call i32 @hash_g_compute(ptr noundef %127, i32 noundef %128, ptr noundef %20, i32 noundef 2, ptr noundef %18)
  store i32 %129, ptr %19, align 4
  %130 = load i32, ptr %19, align 4
  %131 = add nsw i32 %130, 1
  %132 = load i32, ptr %11, align 4
  %133 = icmp ne i32 %131, %132
  br i1 %133, label %143, label %134

134:                                              ; preds = %107
  %135 = load ptr, ptr %10, align 8
  %136 = getelementptr inbounds i8, ptr %135, i64 1
  %137 = getelementptr inbounds nuw %struct.slurm_hash_t, ptr %18, i32 0, i32 1
  %138 = getelementptr inbounds [32 x i8], ptr %137, i64 0, i64 0
  %139 = load i32, ptr %19, align 4
  %140 = sext i32 %139 to i64
  %141 = call i32 @memcmp(ptr noundef %136, ptr noundef %138, i64 noundef %140) #13
  %142 = icmp ne i32 %141, 0
  br i1 %142, label %143, label %144

143:                                              ; preds = %134, %107
  store i32 -1, ptr %12, align 4
  br label %149

144:                                              ; preds = %134
  %145 = getelementptr inbounds nuw %struct.slurm_hash_t, ptr %18, i32 0, i32 0
  %146 = load i8, ptr %145, align 1
  %147 = load ptr, ptr %8, align 8
  %148 = getelementptr inbounds nuw %struct.slurm_msg, ptr %147, i32 0, i32 15
  store i8 %146, ptr %148, align 2
  br label %149

149:                                              ; preds = %144, %143
  br label %150

150:                                              ; preds = %149
  %151 = load i64, ptr getelementptr inbounds nuw (%struct.slurm_conf_t, ptr @slurm_conf, i32 0, i32 42), align 8
  %152 = and i64 %151, 16
  %153 = icmp ne i64 %152, 0
  br i1 %153, label %154, label %155

154:                                              ; preds = %150
  call void (ptr, i64, i64, i64, ptr, ...) @_log_flag_hex(ptr noundef %18, i64 noundef 33, i64 noundef -1, i64 noundef -1, ptr noundef @.str.40, ptr noundef @__func__._check_hash)
  br label %155

155:                                              ; preds = %154, %150
  br label %156

156:                                              ; preds = %155
  br label %157

157:                                              ; preds = %156
  call void @llvm.lifetime.end.p0(i64 2, ptr %20) #12
  call void @llvm.lifetime.end.p0(i64 4, ptr %19) #12
  call void @llvm.lifetime.end.p0(i64 33, ptr %18) #12
  call void @llvm.lifetime.end.p0(i64 4, ptr %17) #12
  call void @llvm.lifetime.end.p0(i64 8, ptr %16) #12
  br label %158

158:                                              ; preds = %157, %106
  br label %164

159:                                              ; preds = %48
  %160 = load i8, ptr @_check_hash.block_null_hash, align 1, !range !16, !noundef !17
  %161 = trunc i8 %160 to i1
  br i1 %161, label %162, label %163

162:                                              ; preds = %159
  store i32 -1, ptr %12, align 4
  br label %163

163:                                              ; preds = %162, %159
  br label %164

164:                                              ; preds = %163, %158
  call void @slurm_xfree(ptr noundef %10)
  %165 = load i32, ptr %12, align 4
  store i32 %165, ptr %5, align 4
  store i32 1, ptr %13, align 4
  br label %166

166:                                              ; preds = %164, %47, %27
  call void @llvm.lifetime.end.p0(i64 4, ptr %12) #12
  call void @llvm.lifetime.end.p0(i64 4, ptr %11) #12
  call void @llvm.lifetime.end.p0(i64 8, ptr %10) #12
  %167 = load i32, ptr %5, align 4
  ret i32 %167
}