; Function Attrs: nounwind uwtable
define internal fastcc i32 @_check_hash(ptr noundef readonly captures(none) %0, ptr noundef nonnull readonly captures(none) %1, ptr noundef captures(none) %2, ptr noundef %3) unnamed_addr #1 {
  %5 = alloca ptr, align 8
  %6 = alloca i32, align 4
  %7 = alloca %struct.slurm_hash_t, align 1
  %8 = alloca i16, align 2
  call void @llvm.lifetime.start.p0(i64 8, ptr nonnull %5) #19
  store ptr null, ptr %5, align 8
  call void @llvm.lifetime.start.p0(i64 4, ptr nonnull %6) #19
  store i32 0, ptr %6, align 4
  %9 = getelementptr inbounds nuw i8, ptr %1, i64 2
  %10 = load i16, ptr %9, align 2
  %11 = and i16 %10, 64
  %.not = icmp eq i16 %11, 0
  br i1 %.not, label %12, label %95

12:                                               ; preds = %4
  %13 = load i64, ptr @_check_hash.config_update, align 8
  %14 = load i64, ptr @slurm_conf, align 8
  %.not20 = icmp eq i64 %13, %14
  br i1 %.not20, label %25, label %15

15:                                               ; preds = %12
  %16 = load ptr, ptr getelementptr inbounds nuw (i8, ptr @slurm_conf, i64 256), align 8
  %17 = tail call ptr @xstrcasestr(ptr noundef %16, ptr noundef nonnull @.str.94) #19
  %18 = icmp ne ptr %17, null
  %19 = zext i1 %18 to i8
  store i8 %19, ptr @_check_hash.block_null_hash, align 1
  %20 = load ptr, ptr getelementptr inbounds nuw (i8, ptr @slurm_conf, i64 256), align 8
  %21 = tail call ptr @xstrcasestr(ptr noundef %20, ptr noundef nonnull @.str.95) #19
  %22 = icmp ne ptr %21, null
  %23 = zext i1 %22 to i8
  store i8 %23, ptr @_check_hash.block_zero_hash, align 1
  %24 = load i64, ptr @slurm_conf, align 8
  store i64 %24, ptr @_check_hash.config_update, align 8
  br label %25

25:                                               ; preds = %15, %12
  %26 = getelementptr inbounds nuw i8, ptr %2, i64 136
  %27 = load i32, ptr %26, align 8
  %28 = tail call zeroext i1 @slurm_get_plugin_hash_enable(i32 noundef %27) #19
  br i1 %28, label %29, label %95

29:                                               ; preds = %25
  %30 = call i32 @auth_g_get_data(ptr noundef %3, ptr noundef nonnull %5, ptr noundef nonnull %6) #19
  %31 = load i32, ptr %6, align 4
  %.not21 = icmp eq i32 %31, 0
  br i1 %.not21, label %91, label %32

32:                                               ; preds = %29
  %33 = load i64, ptr getelementptr inbounds nuw (i8, ptr @slurm_conf, i64 320), align 8
  %34 = and i64 %33, 16
  %.not22 = icmp eq i64 %34, 0
  br i1 %.not22, label %38, label %35

35:                                               ; preds = %32
  %36 = load ptr, ptr %5, align 8
  %37 = zext i32 %31 to i64
  call void (ptr, i64, i64, i64, ptr, ...) @_log_flag_hex(ptr noundef %36, i64 noundef %37, i64 noundef -1, i64 noundef -1, ptr noundef nonnull @.str.96, ptr noundef nonnull @__func__._check_hash) #19
  br label %38

38:                                               ; preds = %35, %32
  %39 = load ptr, ptr %5, align 8
  %40 = load i8, ptr %39, align 1
  %41 = icmp eq i8 %40, 1
  br i1 %41, label %42, label %63

42:                                               ; preds = %38
  %43 = getelementptr inbounds nuw i8, ptr %2, i64 212
  %44 = load i16, ptr %43, align 4
  %rev.i = call noundef i16 @llvm.bswap.i16(i16 %44)
  %.sroa.4.0.extract.shift = lshr i16 %rev.i, 8
  %.sroa.4.0.extract.trunc = zext nneg i16 %.sroa.4.0.extract.shift to i32
  %45 = load i8, ptr @_check_hash.block_zero_hash, align 1, !range !17, !noundef !18
  %46 = trunc nuw i8 %45 to i1
  %47 = load i32, ptr %6, align 4
  %48 = icmp ne i32 %47, 3
  %or.cond = select i1 %46, i1 true, i1 %48
  br i1 %or.cond, label %94, label %49

49:                                               ; preds = %42
  %.sroa.0.0.extract.trunc = zext i16 %rev.i to i32
  %50 = getelementptr inbounds nuw i8, ptr %39, i64 1
  %51 = load i8, ptr %50, align 1
  %52 = sext i8 %51 to i32
  %sext = shl i32 %.sroa.0.0.extract.trunc, 24
  %53 = ashr exact i32 %sext, 24
  %54 = icmp eq i32 %53, %52
  br i1 %54, label %55, label %94

55:                                               ; preds = %49
  %56 = getelementptr inbounds nuw i8, ptr %39, i64 2
  %57 = load i8, ptr %56, align 1
  %58 = sext i8 %57 to i32
  %sext26 = shl nuw i32 %.sroa.4.0.extract.trunc, 24
  %59 = ashr exact i32 %sext26, 24
  %60 = icmp eq i32 %59, %58
  br i1 %60, label %61, label %94

61:                                               ; preds = %55
  %62 = getelementptr inbounds nuw i8, ptr %2, i64 210
  store i8 1, ptr %62, align 2
  br label %94

63:                                               ; preds = %38
  %64 = getelementptr inbounds nuw i8, ptr %1, i64 8
  %65 = load i32, ptr %64, align 8
  call void @llvm.lifetime.start.p0(i64 33, ptr nonnull %7) #19
  %66 = getelementptr inbounds nuw i8, ptr %7, i64 1
  call void @llvm.memset.p0.i64(ptr noundef nonnull align 1 dereferenceable(33) %66, i8 0, i64 32, i1 false)
  call void @llvm.lifetime.start.p0(i64 2, ptr nonnull %8) #19
  %67 = getelementptr inbounds nuw i8, ptr %2, i64 212
  %68 = load i16, ptr %67, align 4
  %rev.i27 = call noundef i16 @llvm.bswap.i16(i16 %68)
  store i16 %rev.i27, ptr %8, align 2
  %69 = getelementptr inbounds nuw i8, ptr %0, i64 8
  %70 = load ptr, ptr %69, align 8
  %71 = getelementptr inbounds nuw i8, ptr %0, i64 20
  %72 = load i32, ptr %71, align 4
  %73 = zext i32 %72 to i64
  %74 = getelementptr inbounds nuw i8, ptr %70, i64 %73
  store i8 %40, ptr %7, align 1
  %75 = call i32 @hash_g_compute(ptr noundef %74, i32 noundef %65, ptr noundef nonnull %8, i32 noundef 2, ptr noundef nonnull %7) #19
  %76 = add nsw i32 %75, 1
  %77 = load i32, ptr %6, align 4
  %.not23 = icmp eq i32 %76, %77
  br i1 %.not23, label %78, label %86

78:                                               ; preds = %63
  %79 = load ptr, ptr %5, align 8
  %80 = getelementptr inbounds nuw i8, ptr %79, i64 1
  %81 = getelementptr inbounds nuw i8, ptr %7, i64 1
  %82 = sext i32 %75 to i64
  %bcmp = call i32 @bcmp(ptr nonnull %80, ptr nonnull %81, i64 %82)
  %.not24 = icmp eq i32 %bcmp, 0
  br i1 %.not24, label %83, label %86

83:                                               ; preds = %78
  %84 = load i8, ptr %7, align 1
  %85 = getelementptr inbounds nuw i8, ptr %2, i64 210
  store i8 %84, ptr %85, align 2
  br label %86

86:                                               ; preds = %63, %78, %83
  %.1 = phi i32 [ %30, %83 ], [ -1, %78 ], [ -1, %63 ]
  %87 = load i64, ptr getelementptr inbounds nuw (i8, ptr @slurm_conf, i64 320), align 8
  %88 = and i64 %87, 16
  %.not25 = icmp eq i64 %88, 0
  br i1 %.not25, label %90, label %89

89:                                               ; preds = %86
  call void (ptr, i64, i64, i64, ptr, ...) @_log_flag_hex(ptr noundef nonnull %7, i64 noundef 33, i64 noundef -1, i64 noundef -1, ptr noundef nonnull @.str.40, ptr noundef nonnull @__func__._check_hash) #19
  br label %90

90:                                               ; preds = %89, %86
  call void @llvm.lifetime.end.p0(i64 2, ptr nonnull %8) #19
  call void @llvm.lifetime.end.p0(i64 33, ptr nonnull %7) #19
  br label %94

91:                                               ; preds = %29
  %92 = load i8, ptr @_check_hash.block_null_hash, align 1, !range !17, !noundef !18
  %93 = trunc nuw i8 %92 to i1
  %spec.select = select i1 %93, i32 -1, i32 %30
  br label %94

94:                                               ; preds = %91, %61, %42, %55, %49, %90
  %.2 = phi i32 [ %.1, %90 ], [ %30, %61 ], [ -1, %42 ], [ -1, %55 ], [ -1, %49 ], [ %spec.select, %91 ]
  call void @slurm_xfree(ptr noundef nonnull %5) #19
  br label %95

95:                                               ; preds = %25, %4, %94
  %.0 = phi i32 [ %.2, %94 ], [ 0, %4 ], [ 0, %25 ]
  call void @llvm.lifetime.end.p0(i64 4, ptr nonnull %6) #19
  call void @llvm.lifetime.end.p0(i64 8, ptr nonnull %5) #19
  ret i32 %.0
}